; Function Attrs: nounwind uwtable
define noalias nonnull ptr @l_Lean_Elab_Command_instToSnapshotTreeMacroExpandedSnapshot(ptr noundef %0) local_unnamed_addr #0 {
  %2 = getelementptr inbounds nuw i8, ptr %0, i64 8
  %3 = load ptr, ptr %2, align 8, !tbaa !9
  %4 = ptrtoint ptr %3 to i64
  %5 = and i64 %4, 1
  %.not = icmp eq i64 %5, 0
  br i1 %.not, label %6, label %lean_inc.exit13

6:                                                ; preds = %1
  %.val.i = load i32, ptr %3, align 4, !tbaa !4
  %7 = icmp sgt i32 %.val.i, 0
  br i1 %7, label %8, label %10, !prof !13

8:                                                ; preds = %6
  %9 = add nuw i32 %.val.i, 1
  store i32 %9, ptr %3, align 4, !tbaa !4
  br label %lean_inc.exit13

10:                                               ; preds = %6
  %.not.i14 = icmp eq i32 %.val.i, 0
  br i1 %.not.i14, label %lean_inc.exit13, label %11

11:                                               ; preds = %10
  tail call void @lean_inc_ref_cold(ptr noundef nonnull %3) #6
  br label %lean_inc.exit13

lean_inc.exit13:                                  ; preds = %11, %10, %8, %1
  %12 = getelementptr inbounds nuw i8, ptr %0, i64 40
  %13 = load ptr, ptr %12, align 8, !tbaa !9
  %14 = ptrtoint ptr %13 to i64
  %15 = and i64 %14, 1
  %.not18 = icmp eq i64 %15, 0
  br i1 %.not18, label %16, label %lean_inc.exit

16:                                               ; preds = %lean_inc.exit13
  %.val.i15 = load i32, ptr %13, align 4, !tbaa !4
  %17 = icmp sgt i32 %.val.i15, 0
  br i1 %17, label %18, label %20, !prof !13

18:                                               ; preds = %16
  %19 = add nuw i32 %.val.i15, 1
  store i32 %19, ptr %13, align 4, !tbaa !4
  br label %lean_inc.exit

20:                                               ; preds = %16
  %.not.i16 = icmp eq i32 %.val.i15, 0
  br i1 %.not.i16, label %lean_inc.exit, label %21

21:                                               ; preds = %20
  tail call void @lean_inc_ref_cold(ptr noundef nonnull %13) #6
  br label %lean_inc.exit

lean_inc.exit:                                    ; preds = %21, %20, %18, %lean_inc.exit13
  %22 = ptrtoint ptr %0 to i64
  %23 = and i64 %22, 1
  %.not19 = icmp eq i64 %23, 0
  br i1 %.not19, label %24, label %lean_dec.exit

24:                                               ; preds = %lean_inc.exit
  %25 = load i32, ptr %0, align 4, !tbaa !4
  %26 = icmp sgt i32 %25, 1
  br i1 %26, label %27, label %29, !prof !13

27:                                               ; preds = %24
  %28 = add nsw i32 %25, -1
  store i32 %28, ptr %0, align 4, !tbaa !4
  br label %lean_dec.exit

29:                                               ; preds = %24
  %.not.i = icmp eq i32 %25, 0
  br i1 %.not.i, label %lean_dec.exit, label %30

30:                                               ; preds = %29
  tail call void @lean_dec_ref_cold(ptr noundef nonnull %0) #6
  br label %lean_dec.exit

lean_dec.exit:                                    ; preds = %30, %29, %27, %lean_inc.exit
  %31 = getelementptr i8, ptr %13, i64 8
  %.val = load i64, ptr %31, align 8, !tbaa !11
  %32 = tail call ptr @l_Array_mapMUnsafe_map___at_Lean_Elab_Command_instToSnapshotTreeMacroExpandedSnapshot___spec__1(i64 noundef %.val, i64 noundef 0, ptr noundef %13)
  tail call void @lean_inc_heartbeat() #6
  %33 = tail call noalias ptr @mi_malloc_small(i64 noundef 24) #6
  %34 = icmp eq ptr %33, null
  br i1 %34, label %35, label %lean_alloc_ctor.exit

35:                                               ; preds = %lean_dec.exit
  tail call void @lean_internal_panic_out_of_memory() #7
  unreachable

lean_alloc_ctor.exit:                             ; preds = %lean_dec.exit
  %36 = getelementptr inbounds nuw i8, ptr %33, i64 4
  store i32 1, ptr %33, align 4, !tbaa !4
  store i32 131096, ptr %36, align 4
  %37 = getelementptr inbounds nuw i8, ptr %33, i64 8
  store ptr %3, ptr %37, align 8, !tbaa !9
  %38 = getelementptr inbounds nuw i8, ptr %33, i64 16
  store ptr %32, ptr %38, align 8, !tbaa !9
  ret ptr %33
}